; Function Attrs: mustprogress nofree norecurse nosync nounwind willreturn memory(argmem: write) uwtable
define dso_local void @LLVMSetTargetMachineGlobalISelAbort(ptr nocapture noundef writeonly %0, i32 noundef %1) local_unnamed_addr #8 {
  %switch.selectcmp = icmp eq i32 %1, 2
  %switch.select = select i1 %switch.selectcmp, i32 2, i32 1
  %switch.selectcmp2 = icmp eq i32 %1, 1
  %switch.select3 = select i1 %switch.selectcmp2, i32 0, i32 %switch.select
  %3 = getelementptr inbounds i8, ptr %0, i64 884
  store i32 %switch.select3, ptr %3, align 4
  ret void
}